(dp1
S'output'
p2
S'missing "pass" in view'
p3
sS'layer'
p4
S'ParserContainer'
p5
sS'code'
p6
S'response.write(\'<!DOCTYPE html>\\n<head>\\n  <link href="https://fonts.googleapis.com/css?family=Questrial" rel="stylesheet">\\n  <link href="https://fonts.googleapis.com/css?family=Damion" rel="stylesheet">\\n  <link rel="stylesheet" type="text/css" href="\', escape=False)\nresponse.write(URL(\'static\', \'css/bootstrap.min.css\'))\nresponse.write(\'">\\n</head>\\n<style>\\n\\nbody {\\n\\tbackground-color: FloralWhite;\\n}\\n\\n/*.container {\\n  display: block;\\n  position: relative;\\n  padding-left: 35px;\\n  margin-bottom: 12px;\\n  cursor: pointer;\\n  font-size: 22px;\\n  -webkit-user-select: none;\\n  -moz-user-select: none;\\n  -ms-user-select: none;\\n  user-select: none;\\n  font-family: \\\'Damion\\\', cursive;\\n  color: SaddleBrown;\\n  font-size: 30px;\\n}\\n.container input {\\n  position: absolute;\\n  opacity: 0;\\n  cursor: pointer;\\n  height: 0;\\n  width: 0;\\n}\\n.checkmark {\\n  position: absolute;\\n  top: 0;\\n  left: 0;\\n  height: 25px;\\n  width: 25px;\\n  background-color: #eee;\\n}\\n.container:hover input ~ .checkmark {\\n  background-color: #ccc;\\n}\\n.container input:checked ~ .checkmark {\\n  background-color: DarkRed;\\n}\\n.checkmark:after {\\n  content: "";\\n  position: absolute;\\n  display: none;\\n}\\n.container input:checked ~ .checkmark:after {\\n  display: block;\\n}\\n.container .checkmark:after {\\n  left: 9px;\\n  top: 5px;\\n  width: 5px;\\n  height: 10px;\\n  border: solid white;\\n  border-width: 0 3px 3px 0;\\n  -webkit-transform: rotate(45deg);\\n  -ms-transform: rotate(45deg);\\n  transform: rotate(45deg);\\n}*/\\n\\nimg {\\n  display: block;\\n  margin-left: auto;\\n  margin-right: auto;\\n  padding-bottom: 80px;\\n  border: 1px solid #ddd;\\n  border-radius: 4px;\\n  padding: 5px;\\n  width: 150px;\\n  margin: : 80px;\\n}\\n\\n/*.button {\\n  background-color: DarkRed;\\n  font-family: \\\'Questrial\\\';\\n  border: none;\\n  color: white;\\n  padding: 20px;\\n  text-align: center;\\n  text-decoration: none;\\n  display: inline-block;\\n  font-size: 16px;\\n  margin: 4px 2px;\\n  cursor: pointer;\\n  border-radius: 50%;\\n  width: 10%;\\n}*/\\n\\n</style>\\n\\n<body>\\n  <h1 style="text-align: center; color: DarkRed; font-size: 80px; font-family: \\\'Questrial\\\', sans-serif;, sans-serif;">Pantry</h1>\\n  \', escape=False)\nfor recipe in recipes:\n    response.write(\'\\n        <div class="recipe-details">\\n          <img src="\', escape=False)\n    response.write(URL(\'download\', args=recipe.file))\n    response.write(\'" \\n             class="img-responsive img-thumbnail" \\n\\n  <div class="container">\\n    <div class="row">\\n      <div class="recipe-form">\\n        <form action="\', escape=False)\n    response.write(URL(\'getRecipe\'))\n    response.write(\'" method="post" class="form">\\n          <label class="checkbox-inline">\\n            <input type="checkbox" id="" value="option1"> 1\\n          </label>\\n          <label class="checkbox-inline">\\n            <input type="checkbox" id="" value="option2"> 2\\n          </label>\\n          <label class="checkbox-inline">\\n            <input type="checkbox" id="" value="option3"> 3\\n          </label>\\n\\n\\n\\n\\n          <label class="checkbox-inline">tomatoes\\n            <input type="checkbox" name="ingredient" value="tomatoes" checked="">\\n            <span class="checkmark"></span>\\n          </label>\\n\\n          <label class="checkbox-inline">tomato paste\\n            <input type="checkbox" name="ingredient" value="tomato paste">\\n            <span class="checkmark"></span>\\n          </label>\\n\\n          <label class="checkbox-inline">onions\\n            <input type="checkbox" name="ingredient" value="onions">\\n            <span class="checkmark"></span>\\n          </label>\\n\\n          <label class="checkbox-inline">chicken\\n            <input type="checkbox" name="ingredient" value="chicken">\\n            <span class="checkmark"></span>\\n          </label>\\n          </div>\\n\\n          <label class="checkbox-inline">rice\\n            <input type="checkbox" name="ingredient" value="rice">\\n            <span class="checkmark"></span>\\n          </label>\\n\\n          <label class="checkbox-inline">black pepper\\n            <input type="checkbox" name="ingredient" value="black pepper">\\n            <span class="checkmark"></span>\\n          </label>\\n\\n          <label class="checkbox-inline">salt\\n            <input type="checkbox" name="ingredient" value="salt">\\n            <span class="checkmark"></span>\\n          </label>\\n\\n          <label class="checkbox-inline">ginger\\n            <input type="checkbox" name="ingredient" value="ginger">\\n            <span class="checkmark"></span>\\n          </label>\\n\\n          <label class="checkbox-inline">cabbage\\n            <input type="checkbox" name="ingredient" value="cabbage">\\n            <span class="checkmark"></span>\\n          </label>\\n\\n          <label class="checkbox-inline">carrots\\n            <input type="checkbox" name="ingredient" value="carrots">\\n            <span class="checkmark"></span>\\n          </label>\\n\\n          <label class="checkbox-inline">potatoes\\n            <input type="checkbox" name="ingredient" value="potatoes">\\n            <span class="checkmark"></span>\\n          </label>\\n\\n          <label class="checkbox-inline">meat\\n            <input type="checkbox" name="ingredient" value="meat">\\n            <span class="checkmark"></span>\\n          </label>\\n\\n          <label class="checkbox-inline">fish\\n            <input type="checkbox" name="ingredient" value="fish">\\n            <span class="checkmark"></span>\\n          </label>\\n\\n          <label class="checkbox-inline">vegetable oil\\n            <input type="checkbox" name="ingredient" value="vegetable oil">\\n            <span class="checkmark"></span>\\n          </label>\\n\\n          <label class="checkbox-inline">red beans\\n            <input type="checkbox" name="ingredient" value="red beans">\\n            <span class="checkmark"></span>\\n          </label>\\n\\n          <label class="checkbox-inline">palm oil\\n            <input type="checkbox" name="ingredient" value="palm oil">\\n            <span class="checkmark"></span>\\n          </label>\\n\\n          <label class="checkbox-inline">black eyed peas\\n            <input type="checkbox" name="ingredient" value="black eyed peas">\\n            <span class="checkmark"></span>\\n          </label>\\n\\n          <label class="checkbox-inline">corn\\n            <input type="checkbox" name="ingredient" value="corn">\\n            <span class="checkmark"></span>\\n          </label>\\n\\n          <label class="checkbox-inline">cassava dough\\n            <input type="checkbox" name="ingredient" value="cassava dough">\\n            <span class="checkmark"></span>\\n          </label>\\n\\n          <label class="checkbox-inline">green plaintain flour\\n            <input type="checkbox" name="ingredient" value="green plantain flour">\\n            <span class="checkmark"></span>\\n          </label>\\n\\n          <label class="checkbox-inline">maize dough\\n            <input type="checkbox" name="ingredient" value="maize dough">\\n            <span class="checkmark"></span>\\n          </label>\\n\\n          <label class="checkbox-inline">millet dough\\n            <input type="checkbox" name="ingredient" value="millet dough">\\n            <span class="checkmark"></span>\\n          </label>\\n\\n          <label class="checkbox-inline">cayenne pepper\\n            <input type="checkbox" name="ingredient" value="cayenne pepper">\\n            <span class="checkmark"></span>\\n          </label>\\n\\n          <label class="checkbox-inline">dawadawa\\n            <input type="checkbox" name="ingredient" value="dawadawa">\\n            <span class="checkmark"></span>\\n          </label>\\n\\n          <label class="checkbox-inline">ayoyo leaves\\n            <input type="checkbox" name="ingredient" value="ayoyo leaves">\\n            <span class="checkmark"></span>\\n          </label>\\n\\n          <label class="checkbox-inline">cocoyam leaves\\n            <input type="checkbox" name="ingredient" value="cocoyam leaves">\\n            <span class="checkmark"></span>\\n          </label>\\n\\n          <label class="checkbox-inline">eggs\\n            <input type="checkbox" name="ingredient" value="eggs">\\n            <span class="checkmark"></span>\\n          </label>\\n\\n          <label class="checkbox-inline">kontomire\\n            <input type="checkbox" name="ingredient" value="kontomire">\\n            <span class="checkmark"></span>\\n          </label>\\n\\n          <label class="checkbox-inline">egusi\\n            <input type="checkbox" name="ingredient" value="egusi">\\n            <span class="checkmark"></span>\\n          </label>\\n\\n          <label class="checkbox-inline">kidney beans\\n            <input type="checkbox" name="ingredient" value="kidney beans">\\n            <span class="checkmark"></span>\\n          </label>\\n\\n          <label class="checkbox-inline">gari\\n            <input type="checkbox" name="ingredient" value="gari">\\n            <span class="checkmark"></span>\\n          </label>\\n          </div>\\n\\n          <input type="submit" class="button" value="Get Recipe">\\n\\n        </form>\\n      </div>\\n    </div>\\n  </div>\\n\\n\\n</body>\\n</html>\\n              \', escape=False)'
p7
sS'snapshot'
p8
(dp9
S'exception'
p10
(dp11
S'__module__'
p12
S"'gluon.rocket'"
p13
sS'__getslice__'
p14
S"<method-wrapper '__getslice__' of SocketTimeout object>"
p15
sS'__str__'
p16
S"<method-wrapper '__str__' of SocketTimeout object>"
p17
sS'__reduce__'
p18
S'<built-in method __reduce__ of SocketTimeout object>'
p19
sS'__dict__'
p20
S'{}'
p21
sS'__sizeof__'
p22
S'<built-in method __sizeof__ of SocketTimeout object>'
p23
sS'__weakref__'
p24
S'None'
p25
sS'message'
p26
S"'Socket timed out before request.'"
p27
sS'__init__'
p28
S"<method-wrapper '__init__' of SocketTimeout object>"
p29
sS'__setattr__'
p30
S"<method-wrapper '__setattr__' of SocketTimeout object>"
p31
sS'__reduce_ex__'
p32
S'<built-in method __reduce_ex__ of SocketTimeout object>'
p33
sS'__new__'
p34
S'<built-in method __new__ of type object>'
p35
sS'__format__'
p36
S'<built-in method __format__ of SocketTimeout object>'
p37
sS'__class__'
p38
S"<class 'gluon.rocket.SocketTimeout'>"
p39
sS'__doc__'
p40
S"'Exception for when a socket times out between requests.'"
p41
sS'__getitem__'
p42
S"<method-wrapper '__getitem__' of SocketTimeout object>"
p43
sS'__setstate__'
p44
S'<built-in method __setstate__ of SocketTimeout object>'
p45
sS'__getattribute__'
p46
S"<method-wrapper '__getattribute__' of SocketTimeout object>"
p47
sS'args'
p48
S"('Socket timed out before request.',)"
p49
sS'__subclasshook__'
p50
S'<built-in method __subclasshook__ of type object>'
p51
sS'__unicode__'
p52
S'<built-in method __unicode__ of SocketTimeout object>'
p53
sS'__delattr__'
p54
S"<method-wrapper '__delattr__' of SocketTimeout object>"
p55
sS'__repr__'
p56
S"<method-wrapper '__repr__' of SocketTimeout object>"
p57
sS'__hash__'
p58
S"<method-wrapper '__hash__' of SocketTimeout object>"
p59
ssS'evalue'
p60
S'Socket timed out before request.'
p61
sS'frames'
p62
(lp63
(dp64
S'file'
p65
S'/Users/bola/Desktop/web2py/gluon/rocket.py'
p66
sS'dump'
p67
(dp68
S'self'
p69
S'<WSGIWorker(Thread-33, started daemon 123145394171904)>'
p70
sS'conn'
p71
S'<gluon.rocket.Connection object>'
p72
sS'self.run_app'
p73
S'<bound method WSGIWorker.run_app of <WSGIWorker(Thread-33, started daemon 123145394171904)>>'
p74
ssS'lnum'
p75
I1319
sS'lines'
p76
(dp77
I1314
S'            # Enter connection serve loop'
p78
sI1315
S'            while True:'
p79
sI1316
S'                if __debug__:'
p80
sI1317
S"                    self.err_log.debug('Serving a request')"
p81
sI1318
S'                try:'
p82
sI1319
S'                    self.run_app(conn)'
p83
sI1320
S'                except:'
p84
sI1321
S'                    exc = sys.exc_info()'
p85
sI1322
S'                    handled = self._handleError(*exc)'
p86
sI1323
S'                    if handled:'
p87
ssS'call'
p88
S'(self=<WSGIWorker(Thread-33, started daemon 123145394171904)>)'
p89
sS'func'
p90
S'run'
p91
sa(dp92
g65
S'/Users/bola/Desktop/web2py/gluon/rocket.py'
p93
sg67
(dp94
S'self'
p95
S'<WSGIWorker(Thread-33, started daemon 123145394171904)>'
p96
sS'self.environ'
p97
S"{'HTTP_ACCEPT': 'text/html,application/xhtml+xml,application/xml;...e/apng,*/*;q=0.8,application/signed-exchange;v=b3', 'HTTP_ACCEPT_ENCODING': 'gzip, deflate, br', 'HTTP_ACCEPT_LANGUAGE': 'en-US,en;q=0.9', 'HTTP_CACHE_CONTROL': 'max-age=0', 'HTTP_CONNECTION': 'keep-alive', 'HTTP_COOKIE': 'session_id_admin=127.0.0.1-e233ae15-407a-4d84-96...pp=127.0.0.1-4e6b5ec8-dd75-4cb1-83af-9044a9131416', 'HTTP_HOST': '127.0.0.1:8000', 'HTTP_UPGRADE_INSECURE_REQUESTS': '1', 'HTTP_USER_AGENT': 'Mozilla/5.0 (Macintosh; Intel Mac OS X 10_13_6) ...L, like Gecko) Chrome/73.0.3683.103 Safari/537.36', 'PATH_INFO': '/GhanaianDishes/default/index', ...}"
p98
sS'sock_file'
p99
S'<socket._fileobject object>'
p100
sS'environ'
p101
S'undefined'
p102
sS'self.build_environ'
p103
S'<bound method WSGIWorker.build_environ of <WSGIWorker(Thread-33, started daemon 123145394171904)>>'
p104
sS'conn'
p105
S'<gluon.rocket.Connection object>'
p106
ssg75
I1812
sg76
(dp107
I1807
S'        else:'
p108
sI1808
S'            sock_file = conn.makefile(BUF_SIZE)'
p109
sI1809
S''
sI1810
S'        try:'
p110
sI1811
S'            # Read the headers and build our WSGI environment'
p111
sI1812
S'            self.environ = environ = self.build_environ(sock_file, conn)'
p112
sI1813
S''
sI1814
S'            # Handle 100 Continue'
p113
sI1815
S"            if environ.get('HTTP_EXPECT', '') == '100-continue':"
p114
sI1816
S"                res = environ['SERVER_PROTOCOL'] + ' 100 Continue\\r\\n\\r\\n'"
p115
ssg88
S'(self=<WSGIWorker(Thread-33, started daemon 123145394171904)>, conn=<gluon.rocket.Connection object>)'
p116
sg90
S'run_app'
p117
sa(dp118
g65
S'/Users/bola/Desktop/web2py/gluon/rocket.py'
p119
sg67
(dp120
S'sock_file'
p121
S'<socket._fileobject object>'
p122
sS'self.read_request_line'
p123
S'<bound method WSGIWorker.read_request_line of <W...rker(Thread-33, started daemon 123145394171904)>>'
p124
sS'self'
p125
S'<WSGIWorker(Thread-33, started daemon 123145394171904)>'
p126
sS'request'
p127
g102
ssg75
I1632
sg76
(dp128
I1632
S'        request = self.read_request_line(sock_file)'
p129
sI1633
S''
sI1634
S'        # Copy the Base Environment'
p130
sI1635
S'        environ = self.base_environ.copy()'
p131
sI1636
S''
sI1627
S'                                      "wsgiorg.futures": executor.futures})'
p132
sI1628
S''
sI1629
S'    def build_environ(self, sock_file, conn):'
p133
sI1630
S'        """ Build the execution environment. """'
p134
sI1631
S'        # Grab the request line'
p135
ssg88
S'(self=<WSGIWorker(Thread-33, started daemon 123145394171904)>, sock_file=<socket._fileobject object>, conn=<gluon.rocket.Connection object>)'
p136
sg90
S'build_environ'
p137
sa(dp138
g65
S'/Users/bola/Desktop/web2py/gluon/rocket.py'
p139
sg67
(dp140
S'global SocketTimeout'
p141
S"<class 'gluon.rocket.SocketTimeout'>"
p142
ssg75
I1383
sg76
(dp143
I1378
S''
sI1379
S'                d = sock_file.readline()'
p144
sI1380
S'                if PY3K:'
p145
sI1381
S"                    d = d.decode('ISO-8859-1')"
p146
sI1382
S'        except socket.timeout:'
p147
sI1383
S"            raise SocketTimeout('Socket timed out before request.')"
p148
sI1384
S'        except TypeError:'
p149
sI1385
S'            raise SocketClosed('
p150
sI1386
S"                'SSL bug caused closure of socket.  See '"
p151
sI1387
S'                \'"https://groups.google.com/d/topic/web2py/P_Gw0JxWzCs".\')'
p152
ssg88
S'(self=<WSGIWorker(Thread-33, started daemon 123145394171904)>, sock_file=<socket._fileobject object>)'
p153
sg90
S'read_request_line'
p154
sasS'pyver'
p155
S'Python 2.7.10: /usr/bin/python (prefix: /System/Library/Frameworks/Python.framework/Versions/2.7)'
p156
sS'etype'
p157
S"<class 'gluon.rocket.SocketTimeout'>"
p158
sS'date'
p159
S'Tue Apr 16 13:39:14 2019'
p160
sS'locals'
p161
(dp162
S'sock_file'
p163
S'<socket._fileobject object>'
p164
sS'self'
p165
S'<WSGIWorker(Thread-33, started daemon 123145394171904)>'
p166
sssS'traceback'
p167
S'Traceback (most recent call last):\n  File "/Users/bola/Desktop/web2py/gluon/rocket.py", line 1319, in run\n    self.run_app(conn)\n  File "/Users/bola/Desktop/web2py/gluon/rocket.py", line 1812, in run_app\n    self.environ = environ = self.build_environ(sock_file, conn)\n  File "/Users/bola/Desktop/web2py/gluon/rocket.py", line 1632, in build_environ\n    request = self.read_request_line(sock_file)\n  File "/Users/bola/Desktop/web2py/gluon/rocket.py", line 1383, in read_request_line\n    raise SocketTimeout(\'Socket timed out before request.\')\nSocketTimeout: Socket timed out before request.\n'
p168
s.